(dp1
S'output'
p2
S"<type 'exceptions.SyntaxError'> Field start does not belong to the table"
p3
sS'layer'
p4
S'C:\\Users\\Pieter-Jan\\PycharmProjects\\untitled\\web2py\\applications\\Sensors\\controllers/overzicht.py'
p5
sS'code'
p6
S'import re\n\nfrom bokeh.embed import file_html\nfrom bokeh.plotting import figure\nfrom bokeh.resources import CDN\nfrom math import pi\nfrom bokeh.models import DatetimeTickFormatter\n\n\ndef index():\n    rows = db(db.sensor.id > 0).select()\n    return dict(message="hello from overzicht.py", rijen=rows)\n\n\ndef removeOldClock(sensorId):\n    functieNaam = "tijd" + sensorId\n    if not db(db.scheduler_task.function_name == functieNaam).isempty():\n        db(db.scheduler_task.function_name == functieNaam).delete()\n\n\ndef createSchedule(tijdstip):\n    print("create")\n    functieNaam = "tijd" + request.vars[\'naam\']\n    mysched.queue_task(functieNaam, start=tijdstip, repeats=0, period=86400)\n\n\ndef detail():\n    form = FORM(TABLE(TR(\'Tijdstip:\', INPUT(_name=\'name\', requires=IS_TIME())), TR(INPUT(_type=\'submit\'))))\n    if form.accepts(request, session):\n        removeOldClock(request.vars[\'naam\'])\n        tijdstip = request.vars[\'name\']\n        createSchedule(tijdstip)\n        response.flash = T("Wekker staat aan")\n    elif form.errors:\n        response.flash = T("Fout ingegeven")\n\n    sensorNaam = request.vars[\'naam\']\n    timeString = db(db.data.sensor == sensorNaam).select(db.data.tijd).as_list()\n    tempString = db(db.data.sensor == sensorNaam).select(db.data.temperatuur).as_list()\n\n    temp = []\n    time = []\n\n    for var in tempString:\n        waarde = re.search(r"\\d+", str(var)).group()\n        temp.append(waarde)\n\n    for var in timeString:\n        waarde = re.search(r"\\d+", str(var)).group()\n        # waarde= (tm.strftime(\'%Y-%m-%d %H:%M:%S\', tm.gmtime(float(waarde))))\n        time.append(waarde)\n\n    plot = figure(x_axis_type="datetime")\n    plot.line(time, temp)\n\n    html = file_html(plot, CDN, "my plot")\n    return dict(bokeh_script=html, name=sensorNaam, form=form)\n\nresponse._vars=response._caller(detail)\n'
p7
sS'snapshot'
p8
(dp9
sS'traceback'
p10
S'Traceback (most recent call last):\n  File "C:\\Users\\Pieter-Jan\\PycharmProjects\\untitled\\web2py\\gluon\\restricted.py", line 227, in restricted\n    exec ccode in environment\n  File "C:\\Users\\Pieter-Jan\\PycharmProjects\\untitled\\web2py\\applications\\Sensors\\controllers/overzicht.py", line 59, in <module>\n  File "C:\\Users\\Pieter-Jan\\PycharmProjects\\untitled\\web2py\\gluon\\globals.py", line 417, in <lambda>\n    self._caller = lambda f: f()\n  File "C:\\Users\\Pieter-Jan\\PycharmProjects\\untitled\\web2py\\applications\\Sensors\\controllers/overzicht.py", line 32, in detail\n    createSchedule(tijdstip)\n  File "C:\\Users\\Pieter-Jan\\PycharmProjects\\untitled\\web2py\\applications\\Sensors\\controllers/overzicht.py", line 24, in createSchedule\n    mysched.queue_task(functieNaam, start=tijdstip, repeats=0, period=86400)\n  File "C:\\Users\\Pieter-Jan\\PycharmProjects\\untitled\\web2py\\gluon\\scheduler.py", line 1292, in queue_task\n    **kwargs)\n  File "C:\\Users\\Pieter-Jan\\PycharmProjects\\untitled\\web2py\\gluon\\packages\\dal\\pydal\\objects.py", line 751, in validate_and_insert\n    response.id = self.insert(**new_fields)\n  File "C:\\Users\\Pieter-Jan\\PycharmProjects\\untitled\\web2py\\gluon\\packages\\dal\\pydal\\objects.py", line 726, in insert\n    ret = self._db._adapter.insert(self, self._listify(fields))\n  File "C:\\Users\\Pieter-Jan\\PycharmProjects\\untitled\\web2py\\gluon\\packages\\dal\\pydal\\objects.py", line 641, in _listify\n    \'Field %s does not belong to the table\' % name)\nSyntaxError: Field start does not belong to the table\n'
p11
s.