(dp1
S'output'
p2
S"<type 'exceptions.AttributeError'> 'module' object has no attribute 'tools'"
p3
sS'layer'
p4
S'C:\\Users\\Pieter-Jan\\PycharmProjects\\untitled\\web2py\\applications\\Sensors\\controllers/overzicht.py'
p5
sS'code'
p6
S'# -*- coding: utf-8 -*-\n# probeer zoiets als\nimport matplotlib.pyplot as plt\nimport random\nimport plotly.plotly as py\nfrom plotly.graph_objs import *\npy.tools.set_credentials_file(username=\'epicfacexp\', api_key=\'2j3arysr66\')\n\n\ndef index():\n    rows = db(db.sensor.id > 0).select()\n    return dict(message="hello from overzicht.py", rijen=rows)\n\n\ndef detail():\n    sensorNaam = request.vars[\'naam\']\n    time = db(db.data.sensor == sensorNaam).select(db.data.tijd)\n    temp = db(db.data.sensor == sensorNaam).select(db.data.temperatuur)\n\n    trace0 = Scatter(\n        x=time,\n        y=temp\n    )\n    data = Data([trace0])\n\n    url = py.plot(data, filename=\'basic-line\')\n\n    return dict(dataset=url)\n    # return dict(data=temp)\n\n\ndef histogram():\n    dataset = [(random.randint(1, 6) + random.randint(1, 6)) for i in range(100)]\n    return dict(dataset=dataset, title=\'D3.js Histogram\')\n\nresponse._vars=response._caller(index)\n'
p7
sS'snapshot'
p8
(dp9
S'exception'
p10
(dp11
S'__hash__'
p12
S"<method-wrapper '__hash__' of exceptions.AttributeError object>"
p13
sS'__setattr__'
p14
S"<method-wrapper '__setattr__' of exceptions.AttributeError object>"
p15
sS'__reduce_ex__'
p16
S'<built-in method __reduce_ex__ of exceptions.AttributeError object>'
p17
sS'__getslice__'
p18
S"<method-wrapper '__getslice__' of exceptions.AttributeError object>"
p19
sS'__getitem__'
p20
S"<method-wrapper '__getitem__' of exceptions.AttributeError object>"
p21
sS'__setstate__'
p22
S'<built-in method __setstate__ of exceptions.AttributeError object>'
p23
sS'__reduce__'
p24
S'<built-in method __reduce__ of exceptions.AttributeError object>'
p25
sS'__str__'
p26
S"<method-wrapper '__str__' of exceptions.AttributeError object>"
p27
sS'__format__'
p28
S'<built-in method __format__ of exceptions.AttributeError object>'
p29
sS'__getattribute__'
p30
S"<method-wrapper '__getattribute__' of exceptions.AttributeError object>"
p31
sS'__class__'
p32
S"<type 'exceptions.AttributeError'>"
p33
sS'__unicode__'
p34
S'<built-in method __unicode__ of exceptions.AttributeError object>'
p35
sS'__delattr__'
p36
S"<method-wrapper '__delattr__' of exceptions.AttributeError object>"
p37
sS'__subclasshook__'
p38
S'<built-in method __subclasshook__ of type object>'
p39
sS'__repr__'
p40
S"<method-wrapper '__repr__' of exceptions.AttributeError object>"
p41
sS'args'
p42
S'("\'module\' object has no attribute \'tools\'",)'
p43
sS'__dict__'
p44
S'{}'
p45
sS'__sizeof__'
p46
S'<built-in method __sizeof__ of exceptions.AttributeError object>'
p47
sS'__doc__'
p48
S"'Attribute not found.'"
p49
sS'__init__'
p50
S"<method-wrapper '__init__' of exceptions.AttributeError object>"
p51
sS'__new__'
p52
S'<built-in method __new__ of type object>'
p53
ssS'evalue'
p54
S"'module' object has no attribute 'tools'"
p55
sS'request'
p56
cgluon.html
XML_unpickle
p57
(S's9^\x00\x00<div><table><tr><td style="font-weight:bold;vertical-align:top;">ajax</td><td style="vertical-align:top;">:</td><td><div>False</div></td></tr><tr><td style="font-weight:bold;vertical-align:top;">application</td><td style="vertical-align:top;">:</td><td><div>Sensors</div></td></tr><tr><td style="font-weight:bold;vertical-align:top;">args</td><td style="vertical-align:top;">:</td><td><div><table></table></div></td></tr><tr><td style="font-weight:bold;vertical-align:top;">cid</td><td style="vertical-align:top;">:</td><td><div>None</div></td></tr><tr><td style="font-weight:bold;vertical-align:top;">client</td><td style="vertical-align:top;">:</td><td><div>127.0.0.1</div></td></tr><tr><td style="font-weight:bold;vertical-align:top;">controller</td><td style="vertical-align:top;">:</td><td><div>overzicht</div></td></tr><tr><td style="font-weight:bold;vertical-align:top;">cookies</td><td style="vertical-align:top;">:</td><td><div><table><tr><td style="font-weight:bold;vertical-align:top;">session_id_admin</td><td style="vertical-align:top;">:</td><td><div>127.0.0.1-b046d010-9da2-44da-8191-0fe4d86c0a51<table><tr><td style="font-weight:bold;vertical-align:top;">comment</td><td style="vertical-align:top;">:</td><td><div></div></td></tr><tr><td style="font-weight:bold;vertical-align:top;">domain</td><td style="vertical-align:top;">:</td><td><div></div></td></tr><tr><td style="font-weight:bold;vertical-align:top;">expires</td><td style="vertical-align:top;">:</td><td><div></div></td></tr><tr><td style="font-weight:bold;vertical-align:top;">httponly</td><td style="vertical-align:top;">:</td><td><div></div></td></tr><tr><td style="font-weight:bold;vertical-align:top;">max-age</td><td style="vertical-align:top;">:</td><td><div></div></td></tr><tr><td style="font-weight:bold;vertical-align:top;">path</td><td style="vertical-align:top;">:</td><td><div></div></td></tr><tr><td style="font-weight:bold;vertical-align:top;">secure</td><td style="vertical-align:top;">:</td><td><div></div></td></tr><tr><td style="font-weight:bold;vertical-align:top;">version</td><td style="vertical-align:top;">:</td><td><div></div></td></tr></table></div></td></tr><tr><td style="font-weight:bold;vertical-align:top;">session_id_sensors</td><td style="vertical-align:top;">:</td><td><div>127.0.0.1-97f80b18-1945-48a0-9317-10815e5291b6<table><tr><td style="font-weight:bold;vertical-align:top;">comment</td><td style="vertical-align:top;">:</td><td><div></div></td></tr><tr><td style="font-weight:bold;vertical-align:top;">domain</td><td style="vertical-align:top;">:</td><td><div></div></td></tr><tr><td style="font-weight:bold;vertical-align:top;">expires</td><td style="vertical-align:top;">:</td><td><div></div></td></tr><tr><td style="font-weight:bold;vertical-align:top;">httponly</td><td style="vertical-align:top;">:</td><td><div></div></td></tr><tr><td style="font-weight:bold;vertical-align:top;">max-age</td><td style="vertical-align:top;">:</td><td><div></div></td></tr><tr><td style="font-weight:bold;vertical-align:top;">path</td><td style="vertical-align:top;">:</td><td><div></div></td></tr><tr><td style="font-weight:bold;vertical-align:top;">secure</td><td style="vertical-align:top;">:</td><td><div></div></td></tr><tr><td style="font-weight:bold;vertical-align:top;">version</td><td style="vertical-align:top;">:</td><td><div></div></td></tr></table></div></td></tr><tr><td style="font-weight:bold;vertical-align:top;">session_id_welcome</td><td style="vertical-align:top;">:</td><td><div>127.0.0.1-e2dfebe3-97d3-4286-b98a-16aab566fcba<table><tr><td style="font-weight:bold;vertical-align:top;">comment</td><td style="vertical-align:top;">:</td><td><div></div></td></tr><tr><td style="font-weight:bold;vertical-align:top;">domain</td><td style="vertical-align:top;">:</td><td><div></div></td></tr><tr><td style="font-weight:bold;vertical-align:top;">expires</td><td style="vertical-align:top;">:</td><td><div></div></td></tr><tr><td style="font-weight:bold;vertical-align:top;">httponly</td><td style="vertical-align:top;">:</td><td><div></div></td></tr><tr><td style="font-weight:bold;vertical-align:top;">max-age</td><td style="vertical-align:top;">:</td><td><div></div></td></tr><tr><td style="font-weight:bold;vertical-align:top;">path</td><td style="vertical-align:top;">:</td><td><div></div></td></tr><tr><td style="font-weight:bold;vertical-align:top;">secure</td><td style="vertical-align:top;">:</td><td><div></div></td></tr><tr><td style="font-weight:bold;vertical-align:top;">version</td><td style="vertical-align:top;">:</td><td><div></div></td></tr></table></div></td></tr></table></div></td></tr><tr><td style="font-weight:bold;vertical-align:top;">env</td><td style="vertical-align:top;">:</td><td><div><table><tr><td style="font-weight:bold;vertical-align:top;">HTTP_ACCEPT</td><td style="vertical-align:top;">:</td><td><div>text/html,application/xhtml+xml,application/xml;q=0.9,image/webp,*/*;q=0.8</div></td></tr><tr><td style="font-weight:bold;vertical-align:top;">HTTP_ACCEPT_ENCODING</td><td style="vertical-align:top;">:</td><td><div>gzip, deflate, sdch, br</div></td></tr><tr><td style="font-weight:bold;vertical-align:top;">HTTP_ACCEPT_LANGUAGE</td><td style="vertical-align:top;">:</td><td><div>nl-NL,nl;q=0.8,en-US;q=0.6,en;q=0.4,fr;q=0.2</div></td></tr><tr><td style="font-weight:bold;vertical-align:top;">HTTP_CONNECTION</td><td style="vertical-align:top;">:</td><td><div>keep-alive</div></td></tr><tr><td style="font-weight:bold;vertical-align:top;">HTTP_COOKIE</td><td style="vertical-align:top;">:</td><td><div>session_id_welcome=127.0.0.1-e2dfebe3-97d3-4286-b98a-16aab566fcba; session_id_admin=127.0.0.1-b046d010-9da2-44da-8191-0fe4d86c0a51; session_id_sensors=127.0.0.1-97f80b18-1945-48a0-9317-10815e5291b6</div></td></tr><tr><td style="font-weight:bold;vertical-align:top;">HTTP_HOST</td><td style="vertical-align:top;">:</td><td><div>127.0.0.1:8000</div></td></tr><tr><td style="font-weight:bold;vertical-align:top;">HTTP_UPGRADE_INSECURE_REQUESTS</td><td style="vertical-align:top;">:</td><td><div>1</div></td></tr><tr><td style="font-weight:bold;vertical-align:top;">HTTP_USER_AGENT</td><td style="vertical-align:top;">:</td><td><div>Mozilla/5.0 (Windows NT 10.0; Win64; x64) AppleWebKit/537.36 (KHTML, like Gecko) Chrome/54.0.2840.99 Safari/537.36</div></td></tr><tr><td style="font-weight:bold;vertical-align:top;">PATH_INFO</td><td style="vertical-align:top;">:</td><td><div>/Sensors/overzicht/</div></td></tr><tr><td style="font-weight:bold;vertical-align:top;">QUERY_STRING</td><td style="vertical-align:top;">:</td><td><div></div></td></tr><tr><td style="font-weight:bold;vertical-align:top;">REMOTE_ADDR</td><td style="vertical-align:top;">:</td><td><div>127.0.0.1</div></td></tr><tr><td style="font-weight:bold;vertical-align:top;">REMOTE_PORT</td><td style="vertical-align:top;">:</td><td><div>12876</div></td></tr><tr><td style="font-weight:bold;vertical-align:top;">REQUEST_METHOD</td><td style="vertical-align:top;">:</td><td><div>GET</div></td></tr><tr><td style="font-weight:bold;vertical-align:top;">SCRIPT_NAME</td><td style="vertical-align:top;">:</td><td><div></div></td></tr><tr><td style="font-weight:bold;vertical-align:top;">SERVER_NAME</td><td style="vertical-align:top;">:</td><td><div>ComputerPJR</div></td></tr><tr><td style="font-weight:bold;vertical-align:top;">SERVER_PORT</td><td style="vertical-align:top;">:</td><td><div>8000</div></td></tr><tr><td style="font-weight:bold;vertical-align:top;">SERVER_PROTOCOL</td><td style="vertical-align:top;">:</td><td><div>HTTP/1.1</div></td></tr><tr><td style="font-weight:bold;vertical-align:top;">SERVER_SOFTWARE</td><td style="vertical-align:top;">:</td><td><div>Rocket 1.2.6</div></td></tr><tr><td style="font-weight:bold;vertical-align:top;">app_folders</td><td style="vertical-align:top;">:</td><td><div>set([&#x27;C:\\\\Users\\\\Pieter-Jan\\\\PycharmProjects\\\\untitled\\\\web2py\\\\applications\\\\welcome\\\\&#x27;, &#x27;C:\\\\Users\\\\Pieter-Jan\\\\PycharmProjects\\\\untitled\\\\web2py\\\\applications\\\\Sensors\\\\&#x27;, &#x27;C:\\\\Users\\\\Pieter-Jan\\\\PycharmProjects\\\\untitled\\\\web2py\\\\applications\\\\admin\\\\&#x27;])</div></td></tr><tr><td style="font-weight:bold;vertical-align:top;">applications_parent</td><td style="vertical-align:top;">:</td><td><div>C:\\Users\\Pieter-Jan\\PycharmProjects\\untitled\\web2py</div></td></tr><tr><td style="font-weight:bold;vertical-align:top;">cmd_args</td><td style="vertical-align:top;">:</td><td><div><table></table></div></td></tr><tr><td style="font-weight:bold;vertical-align:top;">cmd_options</td><td style="vertical-align:top;">:</td><td><div>&lt;Values at 0x3e1e0f8: {&#x27;verbose&#x27;: False, &#x27;ip&#x27;: &#x27;127.0.0.1&#x27;, &#x27;debuglevel&#x27;: 30, &#x27;with_scheduler&#x27;: True, &#x27;shutdown_timeout&#x27;: 5, &#x27;taskbar&#x27;: False, &#x27;with_coverage&#x27;: False, &#x27;pid_filename&#x27;: &#x27;httpserver.pid&#x27;, &#x27;maxthreads&#x27;: None, &#x27;softcron&#x27;: False, &#x27;server_name&#x27;: &#x27;ComputerPJR&#x27;, &#x27;bpython&#x27;: False, &#x27;nogui&#x27;: False, &#x27;port&#x27;: 8000, &#x27;print_errors&#x27;: False, &#x27;extcron&#x27;: False, &#x27;runcron&#x27;: False, &#x27;run_system_tests&#x27;: False, &#x27;test&#x27;: None, &#x27;folder&#x27;: &#x27;C:\\\\Users\\\\Pieter-Jan\\\\PycharmProjects\\\\untitled\\\\web2py&#x27;, &#x27;config&#x27;: &#x27;&#x27;, &#x27;minthreads&#x27;: None, &#x27;shell&#x27;: None, &#x27;run&#x27;: &#x27;&#x27;, &#x27;log_filename&#x27;: &#x27;httpserver.log&#x27;, &#x27;profiler_dir&#x27;: None, &#x27;args&#x27;: [&#x27;&#x27;], &#x27;socket_timeout&#x27;: 5, &#x27;ssl_ca_certificate&#x27;: None, &#x27;scheduler&#x27;: &#x27;Sensors&#x27;, &#x27;interfaces&#x27;: None, &#x27;ssl_private_key&#x27;: &#x27;&#x27;, &#x27;gae&#x27;: None, &#x27;password&#x27;: &#x27;******&#x27;, &#x27;request_queue_size&#x27;: 5, &#x27;ssl_certificate&#x27;: &#x27;&#x27;, &#x27;cronjob&#x27;: False, &#x27;numthreads&#x27;: None, &#x27;quiet&#x27;: False, &#x27;import_models&#x27;: False, &#x27;timeout&#x27;: 10, &#x27;plain&#x27;: False, &#x27;nobanner&#x27;: False}&gt;</div></td></tr><tr><td style="font-weight:bold;vertical-align:top;">db_sessions</td><td style="vertical-align:top;">:</td><td><div>set([])</div></td></tr><tr><td style="font-weight:bold;vertical-align:top;">debugging</td><td style="vertical-align:top;">:</td><td><div>False</div></td></tr><tr><td style="font-weight:bold;vertical-align:top;">gluon_parent</td><td style="vertical-align:top;">:</td><td><div>C:\\Users\\Pieter-Jan\\PycharmProjects\\untitled\\web2py</div></td></tr><tr><td style="font-weight:bold;vertical-align:top;">http_accept</td><td style="vertical-align:top;">:</td><td><div>text/html,application/xhtml+xml,application/xml;q=0.9,image/webp,*/*;q=0.8</div></td></tr><tr><td style="font-weight:bold;vertical-align:top;">http_accept_encoding</td><td style="vertical-align:top;">:</td><td><div>gzip, deflate, sdch, br</div></td></tr><tr><td style="font-weight:bold;vertical-align:top;">http_accept_language</td><td style="vertical-align:top;">:</td><td><div>nl-NL,nl;q=0.8,en-US;q=0.6,en;q=0.4,fr;q=0.2</div></td></tr><tr><td style="font-weight:bold;vertical-align:top;">http_connection</td><td style="vertical-align:top;">:</td><td><div>keep-alive</div></td></tr><tr><td style="font-weight:bold;vertical-align:top;">http_cookie</td><td style="vertical-align:top;">:</td><td><div>session_id_welcome=127.0.0.1-e2dfebe3-97d3-4286-b98a-16aab566fcba; session_id_admin=127.0.0.1-b046d010-9da2-44da-8191-0fe4d86c0a51; session_id_sensors=127.0.0.1-97f80b18-1945-48a0-9317-10815e5291b6</div></td></tr><tr><td style="font-weight:bold;vertical-align:top;">http_host</td><td style="vertical-align:top;">:</td><td><div>127.0.0.1:8000</div></td></tr><tr><td style="font-weight:bold;vertical-align:top;">http_upgrade_insecure_requests</td><td style="vertical-align:top;">:</td><td><div>1</div></td></tr><tr><td style="font-weight:bold;vertical-align:top;">http_user_agent</td><td style="vertical-align:top;">:</td><td><div>Mozilla/5.0 (Windows NT 10.0; Win64; x64) AppleWebKit/537.36 (KHTML, like Gecko) Chrome/54.0.2840.99 Safari/537.36</div></td></tr><tr><td style="font-weight:bold;vertical-align:top;">is_jython</td><td style="vertical-align:top;">:</td><td><div>False</div></td></tr><tr><td style="font-weight:bold;vertical-align:top;">is_pypy</td><td style="vertical-align:top;">:</td><td><div>False</div></td></tr><tr><td style="font-weight:bold;vertical-align:top;">is_source</td><td style="vertical-align:top;">:</td><td><div>True</div></td></tr><tr><td style="font-weight:bold;vertical-align:top;">local_hosts</td><td style="vertical-align:top;">:</td><td><div><table><tr><td><div>fe80::b00f:5f6c:4788:13ea%13</div></td></tr><tr><td><div>ComputerPJR</div></td></tr><tr><td><div>192.168.1.200</div></td></tr><tr><td><div>::ffff:127.0.0.1</div></td></tr><tr><td><div>::1</div></td></tr><tr><td><div>192.168.99.1</div></td></tr><tr><td><div>10.129.15.178</div></td></tr><tr><td><div>fe80::9024:eaa0:539e:b9ba%26</div></td></tr><tr><td><div>fe80::c879:9499:5c00:1a5%16</div></td></tr><tr><td><div>127.0.0.1</div></td></tr><tr><td><div>192.168.56.1</div></td></tr></table></div></td></tr><tr><td style="font-weight:bold;vertical-align:top;">path_info</td><td style="vertical-align:top;">:</td><td><div>/Sensors/overzicht/</div></td></tr><tr><td style="font-weight:bold;vertical-align:top;">query_string</td><td style="vertical-align:top;">:</td><td><div></div></td></tr><tr><td style="font-weight:bold;vertical-align:top;">remote_addr</td><td style="vertical-align:top;">:</td><td><div>127.0.0.1</div></td></tr><tr><td style="font-weight:bold;vertical-align:top;">remote_port</td><td style="vertical-align:top;">:</td><td><div>12876</div></td></tr><tr><td style="font-weight:bold;vertical-align:top;">request_method</td><td style="vertical-align:top;">:</td><td><div>GET</div></td></tr><tr><td style="font-weight:bold;vertical-align:top;">request_uri</td><td style="vertical-align:top;">:</td><td><div>/Sensors/overzicht/</div></td></tr><tr><td style="font-weight:bold;vertical-align:top;">script_name</td><td style="vertical-align:top;">:</td><td><div></div></td></tr><tr><td style="font-weight:bold;vertical-align:top;">server_name</td><td style="vertical-align:top;">:</td><td><div>ComputerPJR</div></td></tr><tr><td style="font-weight:bold;vertical-align:top;">server_port</td><td style="vertical-align:top;">:</td><td><div>8000</div></td></tr><tr><td style="font-weight:bold;vertical-align:top;">server_protocol</td><td style="vertical-align:top;">:</td><td><div>HTTP/1.1</div></td></tr><tr><td style="font-weight:bold;vertical-align:top;">server_software</td><td style="vertical-align:top;">:</td><td><div>Rocket 1.2.6</div></td></tr><tr><td style="font-weight:bold;vertical-align:top;">web2py_path</td><td style="vertical-align:top;">:</td><td><div>C:\\Users\\Pieter-Jan\\PycharmProjects\\untitled\\web2py</div></td></tr><tr><td style="font-weight:bold;vertical-align:top;">web2py_version</td><td style="vertical-align:top;">:</td><td><div>2.14.6-stable+timestamp.2016.05.10.00.21.47</div></td></tr><tr><td style="font-weight:bold;vertical-align:top;">wsgi.errors</td><td style="vertical-align:top;">:</td><td><div>&lt;open file &#x27;&lt;stderr&gt;&#x27;, mode &#x27;w&#x27; at 0x02FAD0D0&gt;</div></td></tr><tr><td style="font-weight:bold;vertical-align:top;">wsgi.file_wrapper</td><td style="vertical-align:top;">:</td><td><div>&lt;class wsgiref.util.FileWrapper at 0x03DDBAB0&gt;</div></td></tr><tr><td style="font-weight:bold;vertical-align:top;">wsgi.input</td><td style="vertical-align:top;">:</td><td><div>&lt;socket._fileobject object at 0x0407EBF0&gt;</div></td></tr><tr><td style="font-weight:bold;vertical-align:top;">wsgi.multiprocess</td><td style="vertical-align:top;">:</td><td><div>False</div></td></tr><tr><td style="font-weight:bold;vertical-align:top;">wsgi.multithread</td><td style="vertical-align:top;">:</td><td><div>True</div></td></tr><tr><td style="font-weight:bold;vertical-align:top;">wsgi.run_once</td><td style="vertical-align:top;">:</td><td><div>False</div></td></tr><tr><td style="font-weight:bold;vertical-align:top;">wsgi.url_scheme</td><td style="vertical-align:top;">:</td><td><div>http</div></td></tr><tr><td style="font-weight:bold;vertical-align:top;">wsgi.version</td><td style="vertical-align:top;">:</td><td><div><table><tr><td><div>1</div></td></tr><tr><td><div>0</div></td></tr></table></div></td></tr><tr><td style="font-weight:bold;vertical-align:top;">wsgi_errors</td><td style="vertical-align:top;">:</td><td><div>&lt;open file &#x27;&lt;stderr&gt;&#x27;, mode &#x27;w&#x27; at 0x02FAD0D0&gt;</div></td></tr><tr><td style="font-weight:bold;vertical-align:top;">wsgi_file_wrapper</td><td style="vertical-align:top;">:</td><td><div>&lt;class wsgiref.util.FileWrapper at 0x03DDBAB0&gt;</div></td></tr><tr><td style="font-weight:bold;vertical-align:top;">wsgi_input</td><td style="vertical-align:top;">:</td><td><div>&lt;socket._fileobject object at 0x0407EBF0&gt;</div></td></tr><tr><td style="font-weight:bold;vertical-align:top;">wsgi_multiprocess</td><td style="vertical-align:top;">:</td><td><div>False</div></td></tr><tr><td style="font-weight:bold;vertical-align:top;">wsgi_multithread</td><td style="vertical-align:top;">:</td><td><div>True</div></td></tr><tr><td style="font-weight:bold;vertical-align:top;">wsgi_run_once</td><td style="vertical-align:top;">:</td><td><div>False</div></td></tr><tr><td style="font-weight:bold;vertical-align:top;">wsgi_url_scheme</td><td style="vertical-align:top;">:</td><td><div>http</div></td></tr><tr><td style="font-weight:bold;vertical-align:top;">wsgi_version</td><td style="vertical-align:top;">:</td><td><div><table><tr><td><div>1</div></td></tr><tr><td><div>0</div></td></tr></table></div></td></tr></table></div></td></tr><tr><td style="font-weight:bold;vertical-align:top;">extension</td><td style="vertical-align:top;">:</td><td><div>html</div></td></tr><tr><td style="font-weight:bold;vertical-align:top;">folder</td><td style="vertical-align:top;">:</td><td><div>C:\\Users\\Pieter-Jan\\PycharmProjects\\untitled\\web2py\\applications\\Sensors\\</div></td></tr><tr><td style="font-weight:bold;vertical-align:top;">function</td><td style="vertical-align:top;">:</td><td><div>index</div></td></tr><tr><td style="font-weight:bold;vertical-align:top;">global_settings</td><td style="vertical-align:top;">:</td><td><div><table><tr><td style="font-weight:bold;vertical-align:top;">app_folders</td><td style="vertical-align:top;">:</td><td><div>set([&#x27;C:\\\\Users\\\\Pieter-Jan\\\\PycharmProjects\\\\untitled\\\\web2py\\\\applications\\\\welcome\\\\&#x27;, &#x27;C:\\\\Users\\\\Pieter-Jan\\\\PycharmProjects\\\\untitled\\\\web2py\\\\applications\\\\Sensors\\\\&#x27;, &#x27;C:\\\\Users\\\\Pieter-Jan\\\\PycharmProjects\\\\untitled\\\\web2py\\\\applications\\\\admin\\\\&#x27;])</div></td></tr><tr><td style="font-weight:bold;vertical-align:top;">applications_parent</td><td style="vertical-align:top;">:</td><td><div>C:\\Users\\Pieter-Jan\\PycharmProjects\\untitled\\web2py</div></td></tr><tr><td style="font-weight:bold;vertical-align:top;">cmd_args</td><td style="vertical-align:top;">:</td><td><div><table></table></div></td></tr><tr><td style="font-weight:bold;vertical-align:top;">cmd_options</td><td style="vertical-align:top;">:</td><td><div>&lt;Values at 0x3e1e0f8: {&#x27;verbose&#x27;: False, &#x27;ip&#x27;: &#x27;127.0.0.1&#x27;, &#x27;debuglevel&#x27;: 30, &#x27;with_scheduler&#x27;: True, &#x27;shutdown_timeout&#x27;: 5, &#x27;taskbar&#x27;: False, &#x27;with_coverage&#x27;: False, &#x27;pid_filename&#x27;: &#x27;httpserver.pid&#x27;, &#x27;maxthreads&#x27;: None, &#x27;softcron&#x27;: False, &#x27;server_name&#x27;: &#x27;ComputerPJR&#x27;, &#x27;bpython&#x27;: False, &#x27;nogui&#x27;: False, &#x27;port&#x27;: 8000, &#x27;print_errors&#x27;: False, &#x27;extcron&#x27;: False, &#x27;runcron&#x27;: False, &#x27;run_system_tests&#x27;: False, &#x27;test&#x27;: None, &#x27;folder&#x27;: &#x27;C:\\\\Users\\\\Pieter-Jan\\\\PycharmProjects\\\\untitled\\\\web2py&#x27;, &#x27;config&#x27;: &#x27;&#x27;, &#x27;minthreads&#x27;: None, &#x27;shell&#x27;: None, &#x27;run&#x27;: &#x27;&#x27;, &#x27;log_filename&#x27;: &#x27;httpserver.log&#x27;, &#x27;profiler_dir&#x27;: None, &#x27;args&#x27;: [&#x27;&#x27;], &#x27;socket_timeout&#x27;: 5, &#x27;ssl_ca_certificate&#x27;: None, &#x27;scheduler&#x27;: &#x27;Sensors&#x27;, &#x27;interfaces&#x27;: None, &#x27;ssl_private_key&#x27;: &#x27;&#x27;, &#x27;gae&#x27;: None, &#x27;password&#x27;: &#x27;******&#x27;, &#x27;request_queue_size&#x27;: 5, &#x27;ssl_certificate&#x27;: &#x27;&#x27;, &#x27;cronjob&#x27;: False, &#x27;numthreads&#x27;: None, &#x27;quiet&#x27;: False, &#x27;import_models&#x27;: False, &#x27;timeout&#x27;: 10, &#x27;plain&#x27;: False, &#x27;nobanner&#x27;: False}&gt;</div></td></tr><tr><td style="font-weight:bold;vertical-align:top;">db_sessions</td><td style="vertical-align:top;">:</td><td><div>set([])</div></td></tr><tr><td style="font-weight:bold;vertical-align:top;">debugging</td><td style="vertical-align:top;">:</td><td><div>False</div></td></tr><tr><td style="font-weight:bold;vertical-align:top;">gluon_parent</td><td style="vertical-align:top;">:</td><td><div>C:\\Users\\Pieter-Jan\\PycharmProjects\\untitled\\web2py</div></td></tr><tr><td style="font-weight:bold;vertical-align:top;">is_jython</td><td style="vertical-align:top;">:</td><td><div>False</div></td></tr><tr><td style="font-weight:bold;vertical-align:top;">is_pypy</td><td style="vertical-align:top;">:</td><td><div>False</div></td></tr><tr><td style="font-weight:bold;vertical-align:top;">is_source</td><td style="vertical-align:top;">:</td><td><div>True</div></td></tr><tr><td style="font-weight:bold;vertical-align:top;">local_hosts</td><td style="vertical-align:top;">:</td><td><div><table><tr><td><div>fe80::b00f:5f6c:4788:13ea%13</div></td></tr><tr><td><div>ComputerPJR</div></td></tr><tr><td><div>192.168.1.200</div></td></tr><tr><td><div>::ffff:127.0.0.1</div></td></tr><tr><td><div>::1</div></td></tr><tr><td><div>192.168.99.1</div></td></tr><tr><td><div>10.129.15.178</div></td></tr><tr><td><div>fe80::9024:eaa0:539e:b9ba%26</div></td></tr><tr><td><div>fe80::c879:9499:5c00:1a5%16</div></td></tr><tr><td><div>127.0.0.1</div></td></tr><tr><td><div>192.168.56.1</div></td></tr></table></div></td></tr><tr><td style="font-weight:bold;vertical-align:top;">web2py_version</td><td style="vertical-align:top;">:</td><td><div>2.14.6-stable+timestamp.2016.05.10.00.21.47</div></td></tr></table></div></td></tr><tr><td style="font-weight:bold;vertical-align:top;">is_https</td><td style="vertical-align:top;">:</td><td><div>False</div></td></tr><tr><td style="font-weight:bold;vertical-align:top;">is_local</td><td style="vertical-align:top;">:</td><td><div>True</div></td></tr><tr><td style="font-weight:bold;vertical-align:top;">is_restful</td><td style="vertical-align:top;">:</td><td><div>False</div></td></tr><tr><td style="font-weight:bold;vertical-align:top;">is_scheduler</td><td style="vertical-align:top;">:</td><td><div>False</div></td></tr><tr><td style="font-weight:bold;vertical-align:top;">is_shell</td><td style="vertical-align:top;">:</td><td><div>False</div></td></tr><tr><td style="font-weight:bold;vertical-align:top;">now</td><td style="vertical-align:top;">:</td><td><div>datetime.datetime(2016, 11, 21, 17, 41, 2, 549000)</div></td></tr><tr><td style="font-weight:bold;vertical-align:top;">raw_args</td><td style="vertical-align:top;">:</td><td><div></div></td></tr><tr><td style="font-weight:bold;vertical-align:top;">raw_extension</td><td style="vertical-align:top;">:</td><td><div>None</div></td></tr><tr><td style="font-weight:bold;vertical-align:top;">url</td><td style="vertical-align:top;">:</td><td><div>/Sensors/overzicht/</div></td></tr><tr><td style="font-weight:bold;vertical-align:top;">utcnow</td><td style="vertical-align:top;">:</td><td><div>datetime.datetime(2016, 11, 21, 16, 41, 2, 549000)</div></td></tr><tr><td style="font-weight:bold;vertical-align:top;">wsgi</td><td style="vertical-align:top;">:</td><td><div>&lt;gluon.main.LazyWSGI object at 0x063A0670&gt;</div></td></tr></table></div>'
tRp58
sS'frames'
p59
(lp60
(dp61
S'file'
p62
S'C:\\Users\\Pieter-Jan\\PycharmProjects\\untitled\\web2py\\gluon\\restricted.py'
p63
sS'dump'
p64
(dp65
S'environment'
p66
S"{'A': <class 'gluon.html.A'>, 'ANY_OF': <class 'gluon.validators.ANY_OF'>, 'ASSIGNJS': <function ASSIGNJS>, 'AngularAxis': <class 'plotly.graph_objs.graph_objs.AngularAxis'>, 'Annotation': <class 'plotly.graph_objs.graph_objs.Annotation'>, 'Annotations': <class 'plotly.graph_objs.graph_objs.Annotations'>, 'AppConfig': <function AppConfig>, 'Area': <class 'plotly.graph_objs.graph_objs.Area'>, 'Auth': <class 'gluon.tools.Auth'>, 'B': <class 'gluon.html.B'>, ...}"
p67
sS'ccode'
p68
S'<code object <module> at 062F0728, file "C:\\User...ations\\Sensors\\controllers/overzicht.py", line 3>'
p69
ssS'lnum'
p70
I227
sS'lines'
p71
(dp72
I224
S'            ccode = code'
p73
sI225
S'        else:'
p74
sI226
S'            ccode = compile2(code, layer)'
p75
sI227
S'        exec ccode in environment'
p76
sI228
S'    except HTTP:'
p77
sI229
S'        raise'
p78
sI230
S'    except RestrictedError:'
p79
sI231
S'        # do not encapsulate (obfuscate) the original RestrictedError'
p80
sI222
S'    try:'
p81
sI223
S'        if isinstance(code, types.CodeType):'
p82
ssS'call'
p83
S'(code="# -*- coding: utf-8 -*-\\n# probeer zoiets als\\nimp...togram\')\\n\\nresponse._vars=response._caller(index)\\n", environment={\'A\': <class \'gluon.html.A\'>, \'ANY_OF\': <class \'gluon.validators.ANY_OF\'>, \'ASSIGNJS\': <function ASSIGNJS>, \'AngularAxis\': <class \'plotly.graph_objs.graph_objs.AngularAxis\'>, \'Annotation\': <class \'plotly.graph_objs.graph_objs.Annotation\'>, \'Annotations\': <class \'plotly.graph_objs.graph_objs.Annotations\'>, \'AppConfig\': <function AppConfig>, \'Area\': <class \'plotly.graph_objs.graph_objs.Area\'>, \'Auth\': <class \'gluon.tools.Auth\'>, \'B\': <class \'gluon.html.B\'>, ...}, layer=r\'C:\\Users\\Pieter-Jan\\PycharmProjects\\untitled\\web2py\\applications\\Sensors\\controllers/overzicht.py\')'
p84
sS'func'
p85
S'restricted'
p86
sa(dp87
g62
S'C:\\Users\\Pieter-Jan\\PycharmProjects\\untitled\\web2py\\applications\\Sensors\\controllers\\overzicht.py'
p88
sg64
(dp89
S'username'
p90
S'undefined'
p91
sS'api_key'
p92
g91
sS'py.tools'
p93
g91
sS'py'
p94
S"<module 'plotly.plotly' from 'C:\\Python27\\lib\\site-packages\\plotly\\plotly\\__init__.py'>"
p95
ssg70
I7
sg71
(dp96
I2
S'# probeer zoiets als'
p97
sI3
S'import matplotlib.pyplot as plt'
p98
sI4
S'import random'
p99
sI5
S'import plotly.plotly as py'
p100
sI6
S'from plotly.graph_objs import *'
p101
sI7
S"py.tools.set_credentials_file(username='epicfacexp', api_key='2j3arysr66')"
p102
sI8
S''
sI9
S''
sI10
S'def index():'
p103
sI11
S'    rows = db(db.sensor.id > 0).select()'
p104
ssg83
S'()'
p105
sg85
S'<module>'
p106
sasS'pyver'
p107
S'Python 2.7.12: C:\\Python27\\python.exe (prefix: C:\\Python27)'
p108
sS'session'
p109
g57
(S's\x1a\x00\x00\x00<div><table></table></div>'
tRp110
sS'etype'
p111
S"<type 'exceptions.AttributeError'>"
p112
sS'date'
p113
S'Mon Nov 21 17:41:11 2016'
p114
sS'response'
p115
g57
(S'sU>\x00\x00<div><table><tr><td style="font-weight:bold;vertical-align:top;">body</td><td style="vertical-align:top;">:</td><td><div>&lt;cStringIO.StringO object at 0x0409BAE0&gt;</div></td></tr><tr><td style="font-weight:bold;vertical-align:top;">cookies</td><td style="vertical-align:top;">:</td><td><div><table><tr><td style="font-weight:bold;vertical-align:top;">session_id_sensors</td><td style="vertical-align:top;">:</td><td><div>127.0.0.1-a81fbb3a-bb91-4594-93b1-fe0b9fac3c23<table><tr><td style="font-weight:bold;vertical-align:top;">comment</td><td style="vertical-align:top;">:</td><td><div></div></td></tr><tr><td style="font-weight:bold;vertical-align:top;">domain</td><td style="vertical-align:top;">:</td><td><div></div></td></tr><tr><td style="font-weight:bold;vertical-align:top;">expires</td><td style="vertical-align:top;">:</td><td><div></div></td></tr><tr><td style="font-weight:bold;vertical-align:top;">httponly</td><td style="vertical-align:top;">:</td><td><div></div></td></tr><tr><td style="font-weight:bold;vertical-align:top;">max-age</td><td style="vertical-align:top;">:</td><td><div></div></td></tr><tr><td style="font-weight:bold;vertical-align:top;">path</td><td style="vertical-align:top;">:</td><td><div>/</div></td></tr><tr><td style="font-weight:bold;vertical-align:top;">secure</td><td style="vertical-align:top;">:</td><td><div></div></td></tr><tr><td style="font-weight:bold;vertical-align:top;">version</td><td style="vertical-align:top;">:</td><td><div></div></td></tr></table></div></td></tr></table></div></td></tr><tr><td style="font-weight:bold;vertical-align:top;">delimiters</td><td style="vertical-align:top;">:</td><td><div><table><tr><td><div>{{</div></td></tr><tr><td><div>}}</div></td></tr></table></div></td></tr><tr><td style="font-weight:bold;vertical-align:top;">files</td><td style="vertical-align:top;">:</td><td><div><table></table></div></td></tr><tr><td style="font-weight:bold;vertical-align:top;">flash</td><td style="vertical-align:top;">:</td><td><div></div></td></tr><tr><td style="font-weight:bold;vertical-align:top;">form_label_separator</td><td style="vertical-align:top;">:</td><td><div></div></td></tr><tr><td style="font-weight:bold;vertical-align:top;">formstyle</td><td style="vertical-align:top;">:</td><td><div>bootstrap3_inline</div></td></tr><tr><td style="font-weight:bold;vertical-align:top;">generic_patterns</td><td style="vertical-align:top;">:</td><td><div><table><tr><td><div>*</div></td></tr></table></div></td></tr><tr><td style="font-weight:bold;vertical-align:top;">google_analytics_id</td><td style="vertical-align:top;">:</td><td><div>None</div></td></tr><tr><td style="font-weight:bold;vertical-align:top;">headers</td><td style="vertical-align:top;">:</td><td><div><table><tr><td style="font-weight:bold;vertical-align:top;">X-Powered-By</td><td style="vertical-align:top;">:</td><td><div>web2py</div></td></tr></table></div></td></tr><tr><td style="font-weight:bold;vertical-align:top;">logo</td><td style="vertical-align:top;">:</td><td><div><a class="navbar-brand" href="http://www.web2py.com/" id="web2py-logo"><b>web<span>2</span>py</b>&trade;&nbsp;</a></div></td></tr><tr><td style="font-weight:bold;vertical-align:top;">menu</td><td style="vertical-align:top;">:</td><td><div><table><tr><td><div><table><tr><td><div>Home</div></td></tr><tr><td><div>False</div></td></tr><tr><td><div>/Sensors/default/index</div></td></tr><tr><td><div><table></table></div></td></tr></table></div></td></tr><tr><td><div><table><tr><td><div>Mijn Sites</div></td></tr><tr><td><div>False</div></td></tr><tr><td><div>/admin/default/site</div></td></tr></table></div></td></tr><tr><td><div><table><tr><td><div>Deze App</div></td></tr><tr><td><div>False</div></td></tr><tr><td><div>#</div></td></tr><tr><td><div><table><tr><td><div><table><tr><td><div>Design</div></td></tr><tr><td><div>False</div></td></tr><tr><td><div>/admin/default/design/Sensors</div></td></tr></table></div></td></tr><tr><td><div><li class="divider"></li></div></td></tr><tr><td><div><table><tr><td><div>Controller</div></td></tr><tr><td><div>False</div></td></tr><tr><td><div>/admin/default/edit/Sensors/controllers/overzicht.py</div></td></tr></table></div></td></tr><tr><td><div><table><tr><td><div>View</div></td></tr><tr><td><div>False</div></td></tr><tr><td><div>/admin/default/edit/Sensors/views/overzicht/index.html</div></td></tr></table></div></td></tr><tr><td><div><table><tr><td><div>DB Model</div></td></tr><tr><td><div>False</div></td></tr><tr><td><div>/admin/default/edit/Sensors/models/db.py</div></td></tr></table></div></td></tr><tr><td><div><table><tr><td><div>Menu Model</div></td></tr><tr><td><div>False</div></td></tr><tr><td><div>/admin/default/edit/Sensors/models/menu.py</div></td></tr></table></div></td></tr><tr><td><div><table><tr><td><div>Config.ini</div></td></tr><tr><td><div>False</div></td></tr><tr><td><div>/admin/default/edit/Sensors/private/appconfig.ini</div></td></tr></table></div></td></tr><tr><td><div><table><tr><td><div>Layout</div></td></tr><tr><td><div>False</div></td></tr><tr><td><div>/admin/default/edit/Sensors/views/layout.html</div></td></tr></table></div></td></tr><tr><td><div><table><tr><td><div>Stylesheet</div></td></tr><tr><td><div>False</div></td></tr><tr><td><div>/admin/default/edit/Sensors/static/css/web2py-bootstrap3.css</div></td></tr></table></div></td></tr><tr><td><div><table><tr><td><div>Database</div></td></tr><tr><td><div>False</div></td></tr><tr><td><div>/Sensors/appadmin/index</div></td></tr></table></div></td></tr><tr><td><div><table><tr><td><div>Errors</div></td></tr><tr><td><div>False</div></td></tr><tr><td><div>/admin/default/errors/Sensors</div></td></tr></table></div></td></tr><tr><td><div><table><tr><td><div>Over</div></td></tr><tr><td><div>False</div></td></tr><tr><td><div>/admin/default/about/Sensors</div></td></tr></table></div></td></tr></table></div></td></tr></table></div></td></tr><tr><td><div><table><tr><td><div>web2py.com</div></td></tr><tr><td><div>False</div></td></tr><tr><td><div>#</div></td></tr><tr><td><div><table><tr><td><div><table><tr><td><div>Download</div></td></tr><tr><td><div>False</div></td></tr><tr><td><div>http://www.web2py.com/examples/default/download</div></td></tr></table></div></td></tr><tr><td><div><table><tr><td><div>Support</div></td></tr><tr><td><div>False</div></td></tr><tr><td><div>http://www.web2py.com/examples/default/support</div></td></tr></table></div></td></tr><tr><td><div><table><tr><td><div>Demo</div></td></tr><tr><td><div>False</div></td></tr><tr><td><div>http://web2py.com/demo_admin</div></td></tr></table></div></td></tr><tr><td><div><table><tr><td><div>Snelle Voorbeelden</div></td></tr><tr><td><div>False</div></td></tr><tr><td><div>http://web2py.com/examples/default/examples</div></td></tr></table></div></td></tr><tr><td><div><table><tr><td><div>FAQ</div></td></tr><tr><td><div>False</div></td></tr><tr><td><div>http://web2py.com/AlterEgo</div></td></tr></table></div></td></tr><tr><td><div><table><tr><td><div>Videos</div></td></tr><tr><td><div>False</div></td></tr><tr><td><div>http://www.web2py.com/examples/default/videos/</div></td></tr></table></div></td></tr><tr><td><div><table><tr><td><div>Gratis Applicaties</div></td></tr><tr><td><div>False</div></td></tr><tr><td><div>http://web2py.com/appliances</div></td></tr></table></div></td></tr><tr><td><div><table><tr><td><div>Plugins</div></td></tr><tr><td><div>False</div></td></tr><tr><td><div>http://web2py.com/plugins</div></td></tr></table></div></td></tr><tr><td><div><table><tr><td><div>Recepten</div></td></tr><tr><td><div>False</div></td></tr><tr><td><div>http://web2pyslices.com/</div></td></tr></table></div></td></tr></table></div></td></tr></table></div></td></tr><tr><td><div><table><tr><td><div>Documentatie</div></td></tr><tr><td><div>False</div></td></tr><tr><td><div>#</div></td></tr><tr><td><div><table><tr><td><div><table><tr><td><div>Online book</div></td></tr><tr><td><div>False</div></td></tr><tr><td><div>http://www.web2py.com/book</div></td></tr></table></div></td></tr><tr><td><div><li class="divider"></li></div></td></tr><tr><td><div><table><tr><td><div>Inleiding</div></td></tr><tr><td><div>False</div></td></tr><tr><td><div>http://www.web2py.com/book/default/chapter/00</div></td></tr></table></div></td></tr><tr><td><div><table><tr><td><div>Introductie</div></td></tr><tr><td><div>False</div></td></tr><tr><td><div>http://www.web2py.com/book/default/chapter/01</div></td></tr></table></div></td></tr><tr><td><div><table><tr><td><div>Python</div></td></tr><tr><td><div>False</div></td></tr><tr><td><div>http://www.web2py.com/book/default/chapter/02</div></td></tr></table></div></td></tr><tr><td><div><table><tr><td><div>Overzicht</div></td></tr><tr><td><div>False</div></td></tr><tr><td><div>http://www.web2py.com/book/default/chapter/03</div></td></tr></table></div></td></tr><tr><td><div><table><tr><td><div>De Core</div></td></tr><tr><td><div>False</div></td></tr><tr><td><div>http://www.web2py.com/book/default/chapter/04</div></td></tr></table></div></td></tr><tr><td><div><table><tr><td><div>De Views</div></td></tr><tr><td><div>False</div></td></tr><tr><td><div>http://www.web2py.com/book/default/chapter/05</div></td></tr></table></div></td></tr><tr><td><div><table><tr><td><div>Database</div></td></tr><tr><td><div>False</div></td></tr><tr><td><div>http://www.web2py.com/book/default/chapter/06</div></td></tr></table></div></td></tr><tr><td><div><table><tr><td><div>Formulieren en Validators</div></td></tr><tr><td><div>False</div></td></tr><tr><td><div>http://www.web2py.com/book/default/chapter/07</div></td></tr></table></div></td></tr><tr><td><div><table><tr><td><div>E-mail en SMS</div></td></tr><tr><td><div>False</div></td></tr><tr><td><div>http://www.web2py.com/book/default/chapter/08</div></td></tr></table></div></td></tr><tr><td><div><table><tr><td><div>Toegangscontrole</div></td></tr><tr><td><div>False</div></td></tr><tr><td><div>http://www.web2py.com/book/default/chapter/09</div></td></tr></table></div></td></tr><tr><td><div><table><tr><td><div>Services</div></td></tr><tr><td><div>False</div></td></tr><tr><td><div>http://www.web2py.com/book/default/chapter/10</div></td></tr></table></div></td></tr><tr><td><div><table><tr><td><div>Ajax Recepten</div></td></tr><tr><td><div>False</div></td></tr><tr><td><div>http://www.web2py.com/book/default/chapter/11</div></td></tr></table></div></td></tr><tr><td><div><table><tr><td><div>Components en Plugins</div></td></tr><tr><td><div>False</div></td></tr><tr><td><div>http://www.web2py.com/book/default/chapter/12</div></td></tr></table></div></td></tr><tr><td><div><table><tr><td><div>Deployment Recepten</div></td></tr><tr><td><div>False</div></td></tr><tr><td><div>http://www.web2py.com/book/default/chapter/13</div></td></tr></table></div></td></tr><tr><td><div><table><tr><td><div>Andere Recepten</div></td></tr><tr><td><div>False</div></td></tr><tr><td><div>http://www.web2py.com/book/default/chapter/14</div></td></tr></table></div></td></tr><tr><td><div><table><tr><td><div>Helping web2py</div></td></tr><tr><td><div>False</div></td></tr><tr><td><div>http://www.web2py.com/book/default/chapter/15</div></td></tr></table></div></td></tr><tr><td><div><table><tr><td><div>Buy web2py\'s book</div></td></tr><tr><td><div>False</div></td></tr><tr><td><div>http://stores.lulu.com/web2py</div></td></tr></table></div></td></tr></table></div></td></tr></table></div></td></tr><tr><td><div><table><tr><td><div>Community</div></td></tr><tr><td><div>False</div></td></tr><tr><td><div>None</div></td></tr><tr><td><div><table><tr><td><div><table><tr><td><div>Groepen</div></td></tr><tr><td><div>False</div></td></tr><tr><td><div>http://www.web2py.com/examples/default/usergroups</div></td></tr></table></div></td></tr><tr><td><div><table><tr><td><div>Twitter</div></td></tr><tr><td><div>False</div></td></tr><tr><td><div>http://twitter.com/web2py</div></td></tr></table></div></td></tr><tr><td><div><table><tr><td><div>Live Chat</div></td></tr><tr><td><div>False</div></td></tr><tr><td><div>http://webchat.freenode.net/?channels=web2py</div></td></tr></table></div></td></tr></table></div></td></tr></table></div></td></tr></table></div></td></tr><tr><td style="font-weight:bold;vertical-align:top;">meta</td><td style="vertical-align:top;">:</td><td><div><table><tr><td style="font-weight:bold;vertical-align:top;">author</td><td style="vertical-align:top;">:</td><td><div>Your Name &lt;you@example.com&gt;</div></td></tr><tr><td style="font-weight:bold;vertical-align:top;">description</td><td style="vertical-align:top;">:</td><td><div>a cool new app</div></td></tr><tr><td style="font-weight:bold;vertical-align:top;">generator</td><td style="vertical-align:top;">:</td><td><div>Web2py Web Framework</div></td></tr><tr><td style="font-weight:bold;vertical-align:top;">keywords</td><td style="vertical-align:top;">:</td><td><div><table><tr><td><div>web2py</div></td></tr><tr><td><div>python</div></td></tr><tr><td><div>framework</div></td></tr></table></div></td></tr></table></div></td></tr><tr><td style="font-weight:bold;vertical-align:top;">models_to_run</td><td style="vertical-align:top;">:</td><td><div><table><tr><td><div>^\\w+\\.py$</div></td></tr><tr><td><div>^overzicht/\\w+\\.py$</div></td></tr><tr><td><div>^overzicht/index/\\w+\\.py$</div></td></tr></table></div></td></tr><tr><td style="font-weight:bold;vertical-align:top;">postprocessing</td><td style="vertical-align:top;">:</td><td><div><table></table></div></td></tr><tr><td style="font-weight:bold;vertical-align:top;">session_client</td><td style="vertical-align:top;">:</td><td><div>127.0.0.1</div></td></tr><tr><td style="font-weight:bold;vertical-align:top;">session_cookie_compression_level</td><td style="vertical-align:top;">:</td><td><div>None</div></td></tr><tr><td style="font-weight:bold;vertical-align:top;">session_cookie_expires</td><td style="vertical-align:top;">:</td><td><div>None</div></td></tr><tr><td style="font-weight:bold;vertical-align:top;">session_data_name</td><td style="vertical-align:top;">:</td><td><div>session_data_sensors</div></td></tr><tr><td style="font-weight:bold;vertical-align:top;">session_file</td><td style="vertical-align:top;">:</td><td><div>None</div></td></tr><tr><td style="font-weight:bold;vertical-align:top;">session_filename</td><td style="vertical-align:top;">:</td><td><div>C:\\Users\\Pieter-Jan\\PycharmProjects\\untitled\\web2py\\applications\\Sensors\\sessions\\127.0.0.1-a81fbb3a-bb91-4594-93b1-fe0b9fac3c23</div></td></tr><tr><td style="font-weight:bold;vertical-align:top;">session_hash</td><td style="vertical-align:top;">:</td><td><div>c0762cbf4baf7f9af97c051e7fcb8083</div></td></tr><tr><td style="font-weight:bold;vertical-align:top;">session_id</td><td style="vertical-align:top;">:</td><td><div>127.0.0.1-a81fbb3a-bb91-4594-93b1-fe0b9fac3c23</div></td></tr><tr><td style="font-weight:bold;vertical-align:top;">session_id_name</td><td style="vertical-align:top;">:</td><td><div>session_id_sensors</div></td></tr><tr><td style="font-weight:bold;vertical-align:top;">session_masterapp</td><td style="vertical-align:top;">:</td><td><div>Sensors</div></td></tr><tr><td style="font-weight:bold;vertical-align:top;">session_new</td><td style="vertical-align:top;">:</td><td><div>True</div></td></tr><tr><td style="font-weight:bold;vertical-align:top;">session_storage_type</td><td style="vertical-align:top;">:</td><td><div>file</div></td></tr><tr><td style="font-weight:bold;vertical-align:top;">status</td><td style="vertical-align:top;">:</td><td><div>200</div></td></tr><tr><td style="font-weight:bold;vertical-align:top;">subtitle</td><td style="vertical-align:top;">:</td><td><div></div></td></tr><tr><td style="font-weight:bold;vertical-align:top;">title</td><td style="vertical-align:top;">:</td><td><div>Sensors</div></td></tr><tr><td style="font-weight:bold;vertical-align:top;">view</td><td style="vertical-align:top;">:</td><td><div>overzicht/index.html</div></td></tr></table></div>'
tRp116
sS'locals'
p117
(dp118
S'Service'
p119
S"<class 'gluon.tools.Service'>"
p120
sS'OBJECT'
p121
S"<class 'gluon.html.OBJECT'>"
p122
sS'absolute_import'
p123
S"_Feature((2, 5, 0, 'alpha', 1), (3, 0, 0, 'alpha', 0), 16384)"
p124
sS'SQLDB'
p125
S"<class 'pydal.base.DAL'>"
p126
sg109
S'<Storage {}>'
p127
sS'LINK'
p128
S"<class 'gluon.html.LINK'>"
p129
sS'BR'
p130
S"<class 'gluon.html.BR'>"
p131
sS'local_import'
p132
S'<function <lambda>>'
p133
sS'OPTGROUP'
p134
S"<class 'gluon.html.OPTGROUP'>"
p135
sS'LI'
p136
S"<class 'gluon.html.LI'>"
p137
sS'Annotations'
p138
S"<class 'plotly.graph_objs.graph_objs.Annotations'>"
p139
sS'redirect'
p140
S'<function redirect>'
p141
sS'IS_INT_IN_RANGE'
p142
S"<class 'gluon.validators.IS_INT_IN_RANGE'>"
p143
sS'IS_LOWER'
p144
S"<class 'gluon.validators.IS_LOWER'>"
p145
sS'IS_STRONG'
p146
S"<class 'gluon.validators.IS_STRONG'>"
p147
sS'ErrorX'
p148
S"<class 'plotly.graph_objs.graph_objs.ErrorX'>"
p149
sS'ErrorY'
p150
S"<class 'plotly.graph_objs.graph_objs.ErrorY'>"
p151
sS'ErrorZ'
p152
S"<class 'plotly.graph_objs.graph_objs.ErrorZ'>"
p153
sS'cache'
p154
S'<gluon.cache.Cache object>'
p155
sS'Histogram'
p156
S"<class 'plotly.graph_objs.graph_objs.Histogram'>"
p157
sS'TAG'
p158
S'<gluon.html.__TAG__ object>'
p159
sS'Scheduler'
p160
S"<class 'gluon.scheduler.Scheduler'>"
p161
sS'SQLField'
p162
S"<class 'pydal.objects.Field'>"
p163
sS'mail'
p164
S'<gluon.tools.Mail object>'
p165
sS'Legend'
p166
S"<class 'plotly.graph_objs.graph_objs.Legend'>"
p167
sS'BODY'
p168
S"<class 'gluon.html.BODY'>"
p169
sS'IS_DATE_IN_RANGE'
p170
S"<class 'gluon.validators.IS_DATE_IN_RANGE'>"
p171
sS'random'
p172
S"<module 'random' from 'C:\\Python27\\lib\\random.pyc'>"
p173
sS'Bar'
p174
S"<class 'plotly.graph_objs.graph_objs.Bar'>"
p175
sS'TH'
p176
S"<class 'gluon.html.TH'>"
p177
sS'Choropleth'
p178
S"<class 'plotly.graph_objs.graph_objs.Choropleth'>"
p179
sS'__file__'
p180
S"r'C:\\Users\\Pieter-Jan\\PycharmProjects\\untitled\\web2py\\applications\\Sensors\\controllers/overzicht.py'"
p181
sS'db'
p182
S'<DAL uri="sqlite://storage.sqlite">'
p183
sS'Candlestick'
p184
S"<class 'plotly.graph_objs.graph_objs.Candlestick'>"
p185
sS'P'
S"<class 'gluon.html.P'>"
p186
sS'T'
S'<gluon.languages.translator object>'
p187
sS'XHTML'
p188
S"<class 'gluon.html.XHTML'>"
p189
sS'Histogram2dcontour'
p190
S"<class 'plotly.graph_objs.graph_objs.Histogram2dcontour'>"
p191
sS'ON'
p192
S'True'
p193
sS'OL'
p194
S"<class 'gluon.html.OL'>"
p195
sS'TEXTAREA'
p196
S"<class 'gluon.html.TEXTAREA'>"
p197
sS'MENU'
p198
S"<class 'gluon.html.MENU'>"
p199
sS'Pie'
p200
S"<class 'plotly.graph_objs.graph_objs.Pie'>"
p201
sS'Surface'
p202
S"<class 'plotly.graph_objs.graph_objs.Surface'>"
p203
sS'IS_IMAGE'
p204
S"<class 'gluon.validators.IS_IMAGE'>"
p205
sS'Font'
p206
S"<class 'plotly.graph_objs.graph_objs.Font'>"
p207
sS'LOAD'
p208
S'<function LOAD>'
p209
sS'CODE'
p210
S"<class 'gluon.html.CODE'>"
p211
sS'HTTP'
p212
S"<class 'gluon.http.HTTP'>"
p213
sS'Area'
p214
S"<class 'plotly.graph_objs.graph_objs.Area'>"
p215
sS'HR'
p216
S"<class 'gluon.html.HR'>"
p217
sS'IS_DATETIME'
p218
S"<class 'gluon.validators.IS_DATETIME'>"
p219
sS'HEAD'
p220
S"<class 'gluon.html.HEAD'>"
p221
sS'LABEL'
p222
S"<class 'gluon.html.LABEL'>"
p223
sS'CLEANUP'
p224
S"<class 'gluon.validators.CLEANUP'>"
p225
sS'Contours'
p226
S"<class 'plotly.graph_objs.graph_objs.Contours'>"
p227
sS'XBins'
p228
S"<class 'plotly.graph_objs.graph_objs.XBins'>"
p229
sS'SELECT'
p230
S"<class 'gluon.html.SELECT'>"
p231
sS'STRONG'
p232
S"<class 'gluon.html.STRONG'>"
p233
sS'CENTER'
p234
S"<class 'gluon.html.CENTER'>"
p235
sS'Auth'
p236
S"<class 'gluon.tools.Auth'>"
p237
sS'DEVELOPMENT_MENU'
p238
g193
sS'IS_EQUAL_TO'
p239
S"<class 'gluon.validators.IS_EQUAL_TO'>"
p240
sS'HTML'
p241
S"<class 'gluon.html.HTML'>"
p242
sS'SQLFORM'
p243
S"<class 'gluon.sqlhtml.SQLFORM'>"
p244
sS'Line'
p245
S"<class 'plotly.graph_objs.graph_objs.Line'>"
p246
sS'Scattergl'
p247
S"<class 'plotly.graph_objs.graph_objs.Scattergl'>"
p248
sS'Box'
p249
S"<class 'plotly.graph_objs.graph_objs.Box'>"
p250
sS'PRE'
p251
S"<class 'gluon.html.PRE'>"
p252
sS'plt'
p253
S"<module 'matplotlib.pyplot' from 'C:\\Python27\\lib\\site-packages\\matplotlib\\pyplot.pyc'>"
p254
sS'FIELDSET'
p255
S"<class 'gluon.html.FIELDSET'>"
p256
sS'__builtins__'
p257
S"{'ArithmeticError': <type 'exceptions.ArithmeticError'>, 'AssertionError': <type 'exceptions.AssertionError'>, 'AttributeError': <type 'exceptions.AttributeError'>, 'BaseException': <type 'exceptions.BaseException'>, 'BufferError': <type 'exceptions.BufferError'>, 'BytesWarning': <type 'exceptions.BytesWarning'>, 'DeprecationWarning': <type 'exceptions.DeprecationWarning'>, 'EOFError': <type 'exceptions.EOFError'>, 'Ellipsis': Ellipsis, 'EnvironmentError': <type 'exceptions.EnvironmentError'>, ...}"
p258
sS'embed64'
p259
S'<function embed64>'
p260
sS'Heatmap'
p261
S"<class 'plotly.graph_objs.graph_objs.Heatmap'>"
p262
sS'IS_LIST_OF'
p263
S"<class 'gluon.validators.IS_LIST_OF'>"
p264
sS'INPUT'
p265
S"<class 'gluon.html.INPUT'>"
p266
sS'EMBED'
p267
S"<class 'gluon.html.EMBED'>"
p268
sS'Scatterternary'
p269
S"<class 'plotly.graph_objs.graph_objs.Scatterternary'>"
p270
sS'Margin'
p271
S"<class 'plotly.graph_objs.graph_objs.Margin'>"
p272
sS'_'
S'<function _>'
p273
sS'graph_objs'
p274
S"<module 'plotly.graph_objs.graph_objs' from 'C:\\...b\\site-packages\\plotly\\graph_objs\\graph_objs.py'>"
p275
sS'myconf'
p276
S"{'forms': {'formstyle': 'bootstrap3_inline', 'se...': {'names': 'localhost:*, 127.0.0.1:*, *:*, *'}}"
p277
sS'Stream'
p278
S"<class 'plotly.graph_objs.graph_objs.Stream'>"
p279
sS'AngularAxis'
p280
S"<class 'plotly.graph_objs.graph_objs.AngularAxis'>"
p281
sS'H3'
p282
S"<class 'gluon.html.H3'>"
p283
sS'AppConfig'
p284
S'<function AppConfig>'
p285
sS'YAxis'
p286
S"<class 'plotly.graph_objs.graph_objs.YAxis'>"
p287
sS'H6'
p288
S"<class 'gluon.html.H6'>"
p289
sS'H4'
p290
S"<class 'gluon.html.H4'>"
p291
sS'Contour'
p292
S"<class 'plotly.graph_objs.graph_objs.Contour'>"
p293
sS'UL'
p294
S"<class 'gluon.html.UL'>"
p295
sS'ZAxis'
p296
S"<class 'plotly.graph_objs.graph_objs.ZAxis'>"
p297
sS'IS_UPPER'
p298
S"<class 'gluon.validators.IS_UPPER'>"
p299
sS'XAxis'
p300
S"<class 'plotly.graph_objs.graph_objs.XAxis'>"
p301
sS'xmlescape'
p302
S'<function xmlescape>'
p303
sS'IS_TIME'
p304
S"<class 'gluon.validators.IS_TIME'>"
p305
sS'OPTION'
p306
S"<class 'gluon.html.OPTION'>"
p307
sS'TITLE'
p308
S"<class 'gluon.html.TITLE'>"
p309
sS'CRYPT'
p310
S"<class 'gluon.validators.CRYPT'>"
p311
sS'IS_EMPTY_OR'
p312
S"<class 'gluon.validators.IS_EMPTY_OR'>"
p313
sS'MARKMIN'
p314
S"<class 'gluon.html.MARKMIN'>"
p315
sS'__name__'
p316
S"'__restricted__'"
p317
sS'IS_DATE'
p318
S"<class 'gluon.validators.IS_DATE'>"
p319
sS'Scatter3d'
p320
S"<class 'plotly.graph_objs.graph_objs.Scatter3d'>"
p321
sS'IS_IN_DB'
p322
S"<class 'gluon.validators.IS_IN_DB'>"
p323
sS'EM'
p324
S"<class 'gluon.html.EM'>"
p325
sS'COL'
p326
S"<class 'gluon.html.COL'>"
p327
sS'Scattergeo'
p328
S"<class 'plotly.graph_objs.graph_objs.Scattergeo'>"
p329
sS'service'
p330
S'<gluon.tools.Service object>'
p331
sS'SCRIPT'
p332
S"<class 'gluon.html.SCRIPT'>"
p333
sS'py'
p334
S"<module 'plotly.plotly' from 'C:\\Python27\\lib\\site-packages\\plotly\\plotly\\__init__.py'>"
p335
sS'Histogram2d'
p336
S"<class 'plotly.graph_objs.graph_objs.Histogram2d'>"
p337
sS'TABLE'
p338
S"<class 'gluon.html.TABLE'>"
p339
sS'Data'
p340
S"<class 'plotly.graph_objs.graph_objs.Data'>"
p341
sS'IS_IPV4'
p342
S"<class 'gluon.validators.IS_IPV4'>"
p343
sS'IS_LENGTH'
p344
S"<class 'gluon.validators.IS_LENGTH'>"
p345
sS'H5'
p346
S"<class 'gluon.html.H5'>"
p347
sS'XML'
p348
S"<class 'gluon.html.XML'>"
p349
sS'Mesh3d'
p350
S"<class 'plotly.graph_objs.graph_objs.Mesh3d'>"
p351
sS'B'
S"<class 'gluon.html.B'>"
p352
sS'IMG'
p353
S"<class 'gluon.html.IMG'>"
p354
sS'SQLTABLE'
p355
S"<class 'gluon.sqlhtml.SQLTABLE'>"
p356
sS'IS_MATCH'
p357
S"<class 'gluon.validators.IS_MATCH'>"
p358
sS'mysched'
p359
S'<Scheduler(Thread-15, initial daemon)>'
p360
sS'IS_ALPHANUMERIC'
p361
S"<class 'gluon.validators.IS_ALPHANUMERIC'>"
p362
sS'Scatter'
p363
S"<class 'plotly.graph_objs.graph_objs.Scatter'>"
p364
sS'SPAN'
p365
S"<class 'gluon.html.SPAN'>"
p366
sS'IS_JSON'
p367
S"<class 'gluon.validators.IS_JSON'>"
p368
sS'IS_IPADDRESS'
p369
S"<class 'gluon.validators.IS_IPADDRESS'>"
p370
sS'graph_objs_tools'
p371
S"<module 'plotly.graph_objs.graph_objs_tools' fro...-packages\\plotly\\graph_objs\\graph_objs_tools.py'>"
p372
sS'IS_SLUG'
p373
S"<class 'gluon.validators.IS_SLUG'>"
p374
sS'Annotation'
p375
S"<class 'plotly.graph_objs.graph_objs.Annotation'>"
p376
sS'H2'
p377
S"<class 'gluon.html.H2'>"
p378
sS'BEAUTIFY'
p379
S"<class 'gluon.html.BEAUTIFY'>"
p380
sS'META'
p381
S"<class 'gluon.html.META'>"
p382
sS'Marker'
p383
S"<class 'plotly.graph_objs.graph_objs.Marker'>"
p384
sS'IS_IPV6'
p385
S"<class 'gluon.validators.IS_IPV6'>"
p386
sS'Histogram2dContour'
p387
S"<class 'plotly.graph_objs.graph_objs.Histogram2dContour'>"
p388
sS'BUTTON'
p389
S"<class 'gluon.html.BUTTON'>"
p390
sS'H1'
p391
S"<class 'gluon.html.H1'>"
p392
sS'Layout'
p393
S"<class 'plotly.graph_objs.graph_objs.Layout'>"
p394
sS'IS_EMAIL'
p395
S"<class 'gluon.validators.IS_EMAIL'>"
p396
sS'IS_NOT_EMPTY'
p397
S"<class 'gluon.validators.IS_NOT_EMPTY'>"
p398
sS'IS_FLOAT_IN_RANGE'
p399
S"<class 'gluon.validators.IS_FLOAT_IN_RANGE'>"
p400
sS'plugins'
p401
S'<gluon.tools.PluginManager object>'
p402
sS'TBODY'
p403
S"<class 'gluon.html.TBODY'>"
p404
sS'Ohlc'
p405
S"<class 'plotly.graph_objs.graph_objs.Ohlc'>"
p406
sS'CAT'
p407
S"<class 'gluon.html.CAT'>"
p408
sS'RadialAxis'
p409
S"<class 'plotly.graph_objs.graph_objs.RadialAxis'>"
p410
sS'Field'
p411
S"<class 'pydal.objects.Field'>"
p412
sS'IS_LIST_OF_EMAILS'
p413
S"<class 'gluon.validators.IS_LIST_OF_EMAILS'>"
p414
sS'DIV'
p415
S"<class 'gluon.html.DIV'>"
p416
sS'Pointcloud'
p417
S"<class 'plotly.graph_objs.graph_objs.Pointcloud'>"
p418
sS'LEGEND'
p419
S"<class 'gluon.html.LEGEND'>"
p420
sS'Trace'
p421
S"<type 'dict'>"
p422
sS'COLGROUP'
p423
S"<class 'gluon.html.COLGROUP'>"
p424
sS'DAL'
p425
S"<class 'pydal.base.DAL'>"
p426
sS'TT'
p427
S"<class 'gluon.html.TT'>"
p428
sS'TR'
p429
S"<class 'gluon.html.TR'>"
p430
sS'__package__'
p431
S'None'
p432
sS'ColorBar'
p433
S"<class 'plotly.graph_objs.graph_objs.ColorBar'>"
p434
sS'URL'
p435
S'<function URL>'
p436
sS'YBins'
p437
S"<class 'plotly.graph_objs.graph_objs.YBins'>"
p438
sS'IFRAME'
p439
S"<class 'gluon.html.IFRAME'>"
p440
sS'Scene'
p441
S"<class 'plotly.graph_objs.graph_objs.Scene'>"
p442
sS'TD'
p443
S"<class 'gluon.html.TD'>"
p444
sS'PluginManager'
p445
S"<class 'gluon.tools.PluginManager'>"
p446
sS'IS_URL'
p447
S"<class 'gluon.validators.IS_URL'>"
p448
sS'A'
S"<class 'gluon.html.A'>"
p449
sS'STYLE'
p450
S"<class 'gluon.html.STYLE'>"
p451
sS'IS_NULL_OR'
p452
S"<class 'gluon.validators.IS_EMPTY_OR'>"
p453
sS'IS_DATETIME_IN_RANGE'
p454
S"<class 'gluon.validators.IS_DATETIME_IN_RANGE'>"
p455
sS'FORM'
p456
S"<class 'gluon.html.FORM'>"
p457
sS'I'
S"<class 'gluon.html.I'>"
p458
sS'demo2'
p459
S'<function demo2>'
p460
sS'IS_NOT_IN_DB'
p461
S"<class 'gluon.validators.IS_NOT_IN_DB'>"
p462
sS'auth'
p463
S'<gluon.tools.Auth object>'
p464
sg115
S"<Storage {'body': <cStringIO.StringO object at 0... at 0x0407EBB0>, 'view': 'overzicht/index.html'}>"
p465
sS'THEAD'
p466
S"<class 'gluon.html.THEAD'>"
p467
sS'ANY_OF'
p468
S"<class 'gluon.validators.ANY_OF'>"
p469
sS'Scattermapbox'
p470
S"<class 'plotly.graph_objs.graph_objs.Scattermapbox'>"
p471
sS'Figure'
p472
S"<class 'plotly.graph_objs.graph_objs.Figure'>"
p473
sg56
S"<Storage {'_vars': None, 'function': 'index', 'c...cts\\\\untitled\\\\web2py\\\\applications\\\\Sensors\\\\'}>"
p474
sS'IS_EXPR'
p475
S"<class 'gluon.validators.IS_EXPR'>"
p476
sS'IS_IN_SET'
p477
S"<class 'gluon.validators.IS_IN_SET'>"
p478
sS'IS_UPLOAD_FILENAME'
p479
S"<class 'gluon.validators.IS_UPLOAD_FILENAME'>"
p480
sS'time'
p481
S"<module 'time' (built-in)>"
p482
sS'IS_DECIMAL_IN_RANGE'
p483
S"<class 'gluon.validators.IS_DECIMAL_IN_RANGE'>"
p484
sS'ASSIGNJS'
p485
S'<function ASSIGNJS>'
p486
sS'TFOOT'
p487
S"<class 'gluon.html.TFOOT'>"
p488
sssS'traceback'
p489
S'Traceback (most recent call last):\n  File "C:\\Users\\Pieter-Jan\\PycharmProjects\\untitled\\web2py\\gluon\\restricted.py", line 227, in restricted\n    exec ccode in environment\n  File "C:\\Users\\Pieter-Jan\\PycharmProjects\\untitled\\web2py\\applications\\Sensors\\controllers/overzicht.py", line 7, in <module>\n    py.tools.set_credentials_file(username=\'epicfacexp\', api_key=\'2j3arysr66\')\nAttributeError: \'module\' object has no attribute \'tools\'\n'
p490
s.