(dp1
S'output'
p2
S"<type 'exceptions.Exception'> Validation error, field:name <class 'gluon.validators.IS_DATETIME'>"
p3
sS'layer'
p4
S'C:\\Users\\Pieter-Jan\\PycharmProjects\\untitled\\web2py\\applications\\Sensors\\controllers/overzicht.py'
p5
sS'code'
p6
S'import re\n\nfrom bokeh.embed import file_html\nfrom bokeh.plotting import figure\nfrom bokeh.resources import CDN\nfrom math import pi\nfrom bokeh.models import DatetimeTickFormatter\n\n\ndef index():\n    rows = db(db.sensor.id > 0).select()\n    return dict(message="hello from overzicht.py", rijen=rows)\n\n\ndef detail():\n    form = FORM(\'Your name:\', INPUT(_name=\'name\', requires=IS_DATETIME), INPUT(_type=\'submit\'))\n    if form.accepts(request, session):\n        response.flash = T("Hello World")\n    elif form.errors:\n        response.flash = T("Hello World")\n    else:\n        response.flash = T("Hello World")\n\n    # check of tijdstip is ingevuld\n    if request.vars[\'name\']:\n        mysched.queue_task(\'tijd\', [request.vars[\'name\']], repeats=0, period=60)\n\n    sensorNaam = request.vars[\'naam\']\n    timeString = db(db.data.sensor == sensorNaam).select(db.data.tijd).as_list()\n    tempString = db(db.data.sensor == sensorNaam).select(db.data.temperatuur).as_list()\n\n    temp = []\n    time = []\n\n    for var in tempString:\n        waarde = re.search(r"\\d+", str(var)).group()\n        temp.append(waarde)\n\n    for var in timeString:\n        waarde = re.search(r"\\d+", str(var)).group()\n        # waarde= (tm.strftime(\'%Y-%m-%d %H:%M:%S\', tm.gmtime(float(waarde))))\n        time.append(waarde)\n\n    plot = figure(x_axis_type="datetime")\n    plot.line(time, temp)\n\n    html = file_html(plot, CDN, "my plot")\n    return dict(bokeh_script=html, name=sensorNaam, form=form)\n\nresponse._vars=response._caller(detail)\n'
p7
sS'snapshot'
p8
(dp9
sS'traceback'
p10
S'Traceback (most recent call last):\n  File "C:\\Users\\Pieter-Jan\\PycharmProjects\\untitled\\web2py\\gluon\\restricted.py", line 227, in restricted\n    exec ccode in environment\n  File "C:\\Users\\Pieter-Jan\\PycharmProjects\\untitled\\web2py\\applications\\Sensors\\controllers/overzicht.py", line 50, in <module>\n  File "C:\\Users\\Pieter-Jan\\PycharmProjects\\untitled\\web2py\\gluon\\globals.py", line 417, in <lambda>\n    self._caller = lambda f: f()\n  File "C:\\Users\\Pieter-Jan\\PycharmProjects\\untitled\\web2py\\applications\\Sensors\\controllers/overzicht.py", line 17, in detail\n    if form.accepts(request, session):\n  File "C:\\Users\\Pieter-Jan\\PycharmProjects\\untitled\\web2py\\gluon\\html.py", line 2122, in accepts\n    status = self._traverse(status, hideerror)\n  File "C:\\Users\\Pieter-Jan\\PycharmProjects\\untitled\\web2py\\gluon\\html.py", line 889, in _traverse\n    newstatus = c._traverse(status, hideerror) and newstatus\n  File "C:\\Users\\Pieter-Jan\\PycharmProjects\\untitled\\web2py\\gluon\\html.py", line 896, in _traverse\n    newstatus = self._validate()\n  File "C:\\Users\\Pieter-Jan\\PycharmProjects\\untitled\\web2py\\gluon\\html.py", line 1867, in _validate\n    raise Exception(msg)\nException: Validation error, field:name <class \'gluon.validators.IS_DATETIME\'>\n'
p11
s.