(dp1
S'output'
p2
S"<type 'exceptions.TypeError'> <Row {'tijd': 1479746844L}> is not JSON serializable"
p3
sS'layer'
p4
S'C:\\Users\\Pieter-Jan\\PycharmProjects\\untitled\\web2py\\applications\\Sensors\\controllers/overzicht.py'
p5
sS'code'
p6
S'# -*- coding: utf-8 -*-\n# probeer zoiets als\n\ndef index():\n    rows = db(db.sensor.id > 0).select()\n    return dict(message="hello from overzicht.py", rijen=rows)\n\n\ndef detail():\n    #print("detail() in overzicht.py")\n    sensorNaam = request.vars[\'naam\']\n    time = db(db.data.sensor == sensorNaam).select(db.data.tijd)\n    temp = db(db.data.sensor == sensorNaam).select(db.data.temperatuur)\n\n    from bokeh.plotting import figure\n    from bokeh.resources import CDN\n    from bokeh.embed import file_html\n\n    #response.files.extend(list_of_Bokeh_JS_and_CSS_static_file_URLs)\n\n    plot = figure()\n    plot.line(x=time, y=temp)\n\n    html = file_html(plot, CDN, "my plot")\n    return dict(bokeh_script=html)\n\nresponse._vars=response._caller(detail)\n'
p7
sS'snapshot'
p8
(dp9
sS'traceback'
p10
S'Traceback (most recent call last):\n  File "C:\\Users\\Pieter-Jan\\PycharmProjects\\untitled\\web2py\\gluon\\restricted.py", line 227, in restricted\n    exec ccode in environment\n  File "C:\\Users\\Pieter-Jan\\PycharmProjects\\untitled\\web2py\\applications\\Sensors\\controllers/overzicht.py", line 27, in <module>\n  File "C:\\Users\\Pieter-Jan\\PycharmProjects\\untitled\\web2py\\gluon\\globals.py", line 417, in <lambda>\n    self._caller = lambda f: f()\n  File "C:\\Users\\Pieter-Jan\\PycharmProjects\\untitled\\web2py\\applications\\Sensors\\controllers/overzicht.py", line 24, in detail\n    html = file_html(plot, CDN, "my plot")\n  File "C:\\Python27\\lib\\site-packages\\bokeh\\embed.py", line 305, in file_html\n    (docs_json, render_items) = _standalone_docs_json_and_render_items(models)\n  File "C:\\Python27\\lib\\site-packages\\bokeh\\embed.py", line 566, in _standalone_docs_json_and_render_items\n    docs_json[k] = v.to_json()\n  File "C:\\Python27\\lib\\site-packages\\bokeh\\document.py", line 827, in to_json\n    doc_json = self.to_json_string()\n  File "C:\\Python27\\lib\\site-packages\\bokeh\\document.py", line 820, in to_json_string\n    return serialize_json(json, indent=indent)\n  File "C:\\Python27\\lib\\site-packages\\bokeh\\core\\json_encoder.py", line 99, in serialize_json\n    return json.dumps(obj, cls=encoder, allow_nan=False, indent=indent, separators=separators, sort_keys=True, **kwargs)\n  File "C:\\Python27\\lib\\json\\__init__.py", line 251, in dumps\n    sort_keys=sort_keys, **kw).encode(obj)\n  File "C:\\Python27\\lib\\json\\encoder.py", line 209, in encode\n    chunks = list(chunks)\n  File "C:\\Python27\\lib\\json\\encoder.py", line 434, in _iterencode\n    for chunk in _iterencode_dict(o, _current_indent_level):\n  File "C:\\Python27\\lib\\json\\encoder.py", line 408, in _iterencode_dict\n    for chunk in chunks:\n  File "C:\\Python27\\lib\\json\\encoder.py", line 408, in _iterencode_dict\n    for chunk in chunks:\n  File "C:\\Python27\\lib\\json\\encoder.py", line 332, in _iterencode_list\n    for chunk in chunks:\n  File "C:\\Python27\\lib\\json\\encoder.py", line 408, in _iterencode_dict\n    for chunk in chunks:\n  File "C:\\Python27\\lib\\json\\encoder.py", line 408, in _iterencode_dict\n    for chunk in chunks:\n  File "C:\\Python27\\lib\\json\\encoder.py", line 408, in _iterencode_dict\n    for chunk in chunks:\n  File "C:\\Python27\\lib\\json\\encoder.py", line 332, in _iterencode_list\n    for chunk in chunks:\n  File "C:\\Python27\\lib\\json\\encoder.py", line 442, in _iterencode\n    o = _default(o)\n  File "C:\\Python27\\lib\\site-packages\\bokeh\\core\\json_encoder.py", line 83, in default\n    return self.transform_python_types(obj)\n  File "C:\\Python27\\lib\\site-packages\\bokeh\\core\\json_encoder.py", line 64, in transform_python_types\n    return super(BokehJSONEncoder, self).default(obj)\n  File "C:\\Python27\\lib\\json\\encoder.py", line 184, in default\n    raise TypeError(repr(o) + " is not JSON serializable")\nTypeError: <Row {\'tijd\': 1479746844L}> is not JSON serializable\n'
p11
s.