(dp1
S'output'
p2
S"<type 'exceptions.AttributeError'> 'list' object has no attribute 'strftime'"
p3
sS'layer'
p4
S'C:\\Users\\Pieter-Jan\\PycharmProjects\\untitled\\web2py\\applications\\Sensors\\controllers/overzicht.py'
p5
sS'code'
p6
S'# -*- coding: utf-8 -*-\n# probeer zoiets als\nimport re\n\nfrom bokeh.plotting import figure\nfrom bokeh.resources import CDN\nfrom bokeh.embed import file_html\n\ndef index():\n    rows = db(db.sensor.id > 0).select()\n    return dict(message="hello from overzicht.py", rijen=rows)\n\n\ndef detail():\n    #print("detail() in overzicht.py")\n    sensorNaam = request.vars[\'naam\']\n    timeString = db(db.data.sensor == sensorNaam).select(db.data.tijd).as_list()\n    tempString = db(db.data.sensor == sensorNaam).select(db.data.temperatuur).as_list()\n\n    temp = []\n    time = []\n\n    for var in tempString:\n        waarde = re.search(r"\\d+", str(var)).group()\n        temp.append(waarde)\n\n    for var in timeString:\n        waarde = re.search(r"\\d+", str(var)).group()\n        time.strftime(\'%Y-%m-%d %H:%M:%S\', waarde)\n        time.append(waarde)\n\n    print temp\n\n    plot = figure()\n    plot.line(x=time, y=temp)\n\n    html = file_html(plot, CDN, "my plot")\n    return dict(bokeh_script=html)\n\nresponse._vars=response._caller(detail)\n'
p7
sS'snapshot'
p8
(dp9
sS'traceback'
p10
S'Traceback (most recent call last):\n  File "C:\\Users\\Pieter-Jan\\PycharmProjects\\untitled\\web2py\\gluon\\restricted.py", line 227, in restricted\n    exec ccode in environment\n  File "C:\\Users\\Pieter-Jan\\PycharmProjects\\untitled\\web2py\\applications\\Sensors\\controllers/overzicht.py", line 40, in <module>\n  File "C:\\Users\\Pieter-Jan\\PycharmProjects\\untitled\\web2py\\gluon\\globals.py", line 417, in <lambda>\n    self._caller = lambda f: f()\n  File "C:\\Users\\Pieter-Jan\\PycharmProjects\\untitled\\web2py\\applications\\Sensors\\controllers/overzicht.py", line 29, in detail\n    time.strftime(\'%Y-%m-%d %H:%M:%S\', waarde)\nAttributeError: \'list\' object has no attribute \'strftime\'\n'
p11
s.