(dp1
S'output'
p2
S"<type 'exceptions.ValueError'> Unrecognized axis_type: ''timestamp''"
p3
sS'layer'
p4
S'C:\\Users\\Pieter-Jan\\PycharmProjects\\untitled\\web2py\\applications\\Sensors\\controllers/overzicht.py'
p5
sS'code'
p6
S'# -*- coding: utf-8 -*-\n# probeer zoiets als\nimport re\nimport time as tm\n\nfrom bokeh.embed import file_html\nfrom bokeh.plotting import figure\nfrom bokeh.resources import CDN\nfrom bokeh.models import DatetimeTickFormatter\n\n\ndef index():\n    rows = db(db.sensor.id > 0).select()\n    return dict(message="hello from overzicht.py", rijen=rows)\n\n\ndef detail():\n    sensorNaam = request.vars[\'naam\']\n    timeString = db(db.data.sensor == sensorNaam).select(db.data.tijd).as_list()\n    tempString = db(db.data.sensor == sensorNaam).select(db.data.temperatuur).as_list()\n\n    temp = []\n    time = []\n\n    for var in tempString:\n        waarde = re.search(r"\\d+", str(var)).group()\n        temp.append(waarde)\n\n    for var in timeString:\n        waarde = re.search(r"\\d+", str(var)).group()\n        waarde= (tm.strftime(\'%Y-%m-%d %H:%M:%S\', tm.gmtime(float(waarde))))\n        time.append(waarde)\n\n    print time\n\n    plot = figure(x_axis_type="timestamp")\n    plot.line(x=time, y=temp)\n\n\n    html = file_html(plot, CDN, "my plot")\n    return dict(bokeh_script=html)\n\nresponse._vars=response._caller(detail)\n'
p7
sS'snapshot'
p8
(dp9
sS'traceback'
p10
S'Traceback (most recent call last):\n  File "C:\\Users\\Pieter-Jan\\PycharmProjects\\untitled\\web2py\\gluon\\restricted.py", line 227, in restricted\n    exec ccode in environment\n  File "C:\\Users\\Pieter-Jan\\PycharmProjects\\untitled\\web2py\\applications\\Sensors\\controllers/overzicht.py", line 43, in <module>\n  File "C:\\Users\\Pieter-Jan\\PycharmProjects\\untitled\\web2py\\gluon\\globals.py", line 417, in <lambda>\n    self._caller = lambda f: f()\n  File "C:\\Users\\Pieter-Jan\\PycharmProjects\\untitled\\web2py\\applications\\Sensors\\controllers/overzicht.py", line 36, in detail\n    plot = figure(x_axis_type="timestamp")\n  File "C:\\Python27\\lib\\site-packages\\bokeh\\plotting\\figure.py", line 587, in figure\n    fig = Figure(**kwargs)\n  File "C:\\Python27\\lib\\site-packages\\bokeh\\plotting\\figure.py", line 55, in __init__\n    _process_axis_and_grid(self, x_axis_type, x_axis_location, x_minor_ticks, x_axis_label, self.x_range, 0)\n  File "C:\\Python27\\lib\\site-packages\\bokeh\\plotting\\helpers.py", line 317, in _process_axis_and_grid\n    axiscls = _get_axis_class(axis_type, rng)\n  File "C:\\Python27\\lib\\site-packages\\bokeh\\plotting\\helpers.py", line 240, in _get_axis_class\n    raise ValueError("Unrecognized axis_type: \'%r\'" % axis_type)\nValueError: Unrecognized axis_type: \'\'timestamp\'\'\n'
p11
s.