(dp1
S'output'
p2
S"<type 'exceptions.TypeError'> expected string or buffer"
p3
sS'layer'
p4
S'C:\\Users\\Pieter-Jan\\PycharmProjects\\untitled\\web2py\\applications\\Sensors\\controllers/overzicht.py'
p5
sS'code'
p6
S'# -*- coding: utf-8 -*-\n# probeer zoiets als\nimport re\n\nfrom bokeh.plotting import figure\nfrom bokeh.resources import CDN\nfrom bokeh.embed import file_html\n\ndef index():\n    rows = db(db.sensor.id > 0).select()\n    return dict(message="hello from overzicht.py", rijen=rows)\n\n\ndef detail():\n    #print("detail() in overzicht.py")\n    sensorNaam = request.vars[\'naam\']\n    timeString = db(db.data.sensor == sensorNaam).select(db.data.tijd).as_list()\n    tempString = db(db.data.sensor == sensorNaam).select(db.data.temperatuur).as_list()\n\n    temp = []\n\n    for var in tempString:\n        temp.extend(int(re.search(r\'\\d+\', var).group()))\n\n    print temp\n\n    plot = figure()\n    #plot.line(x=time, y=temp)\n\n    html = file_html(plot, CDN, "my plot")\n    return dict(bokeh_script=html)\n\nresponse._vars=response._caller(detail)\n'
p7
sS'snapshot'
p8
(dp9
sS'traceback'
p10
S'Traceback (most recent call last):\n  File "C:\\Users\\Pieter-Jan\\PycharmProjects\\untitled\\web2py\\gluon\\restricted.py", line 227, in restricted\n    exec ccode in environment\n  File "C:\\Users\\Pieter-Jan\\PycharmProjects\\untitled\\web2py\\applications\\Sensors\\controllers/overzicht.py", line 33, in <module>\n  File "C:\\Users\\Pieter-Jan\\PycharmProjects\\untitled\\web2py\\gluon\\globals.py", line 417, in <lambda>\n    self._caller = lambda f: f()\n  File "C:\\Users\\Pieter-Jan\\PycharmProjects\\untitled\\web2py\\applications\\Sensors\\controllers/overzicht.py", line 23, in detail\n    temp.extend(int(re.search(r\'\\d+\', var).group()))\n  File "C:\\Python27\\lib\\re.py", line 146, in search\n    return _compile(pattern, flags).search(string)\nTypeError: expected string or buffer\n'
p11
s.